target datalayout = "e-m:e-p270:32:32-p271:32:32-p272:64:64-i64:64-i128:128-f80:128-n8:16:32:64-S128"
target triple = "x86_64-pc-linux-gnu"

%"struct.faiss::VectorDistance.4" = type { i64, float }
%"struct.faiss::FlatCodesDistanceComputer" = type { %"struct.faiss::DistanceComputer", ptr, i64 }
%"struct.faiss::DistanceComputer" = type { ptr }
%"struct.faiss::(anonymous namespace)::ExtraDistanceComputer.12" = type { %"struct.faiss::FlatCodesDistanceComputer", %"struct.faiss::VectorDistance.4", i64, ptr, ptr }

; Function Attrs: mustprogress nounwind uwtable
define linkonce_odr noundef float @_ZNK5faiss14VectorDistanceILNS_10MetricTypeE22EEclEPKfS4_(ptr noundef nonnull align 8 dereferenceable(16) %0, ptr noundef %1, ptr noundef %2) #4 comdat align 2 {
  %4 = alloca ptr, align 8
  %5 = alloca ptr, align 8
  %6 = alloca ptr, align 8
  %7 = alloca float, align 4
  %8 = alloca i64, align 8
  %9 = alloca float, align 4
  %10 = alloca float, align 4
  %11 = alloca float, align 4
  %12 = alloca float, align 4
  %13 = alloca float, align 4
  store ptr %0, ptr %4, align 8
  store ptr %1, ptr %5, align 8
  store ptr %2, ptr %6, align 8
  %14 = load ptr, ptr %4, align 8
  store float 0.000000e+00, ptr %7, align 4
  store i64 0, ptr %8, align 8
  br label %15

15:                                               ; preds = %60, %3
  %16 = load i64, ptr %8, align 8
  %17 = getelementptr inbounds %"struct.faiss::VectorDistance.4", ptr %14, i32 0, i32 0
  %18 = load i64, ptr %17, align 8
  %19 = icmp ult i64 %16, %18
  br i1 %19, label %20, label %63

20:                                               ; preds = %15
  %21 = load ptr, ptr %5, align 8
  %22 = load i64, ptr %8, align 8
  %23 = getelementptr inbounds float, ptr %21, i64 %22
  %24 = load float, ptr %23, align 4
  store float %24, ptr %9, align 4
  %25 = load ptr, ptr %6, align 8
  %26 = load i64, ptr %8, align 8
  %27 = getelementptr inbounds float, ptr %25, i64 %26
  %28 = load float, ptr %27, align 4
  store float %28, ptr %10, align 4
  %29 = load float, ptr %9, align 4
  %30 = load float, ptr %10, align 4
  %31 = fadd float %29, %30
  %32 = fpext float %31 to double
  %33 = fmul double 5.000000e-01, %32
  %34 = fptrunc double %33 to float
  store float %34, ptr %11, align 4
  %35 = load float, ptr %9, align 4
  %36 = fneg float %35
  %37 = fpext float %36 to double
  %38 = load float, ptr %11, align 4
  %39 = load float, ptr %9, align 4
  %40 = fdiv float %38, %39
  %41 = fpext float %40 to double
  %42 = call double @log(double noundef %41) #6
  %43 = fmul double %37, %42
  %44 = fptrunc double %43 to float
  store float %44, ptr %12, align 4
  %45 = load float, ptr %10, align 4
  %46 = fneg float %45
  %47 = fpext float %46 to double
  %48 = load float, ptr %11, align 4
  %49 = load float, ptr %10, align 4
  %50 = fdiv float %48, %49
  %51 = fpext float %50 to double
  %52 = call double @log(double noundef %51) #6
  %53 = fmul double %47, %52
  %54 = fptrunc double %53 to float
  store float %54, ptr %13, align 4
  %55 = load float, ptr %12, align 4
  %56 = load float, ptr %13, align 4
  %57 = fadd float %55, %56
  %58 = load float, ptr %7, align 4
  %59 = fadd float %58, %57
  store float %59, ptr %7, align 4
  br label %60

60:                                               ; preds = %20
  %61 = load i64, ptr %8, align 8
  %62 = add i64 %61, 1
  store i64 %62, ptr %8, align 8
  br label %15, !llvm.loop !32

63:                                               ; preds = %15
  %64 = load float, ptr %7, align 4
  %65 = fpext float %64 to double
  %66 = fmul double 5.000000e-01, %65
  %67 = fptrunc double %66 to float
  ret float %67
}

; Function Attrs: mustprogress nounwind uwtable
define internal noundef float @_ZN5faiss12_GLOBAL__N_121ExtraDistanceComputerINS_14VectorDistanceILNS_10MetricTypeE22EEEE16distance_to_codeEPKh(ptr noundef nonnull align 8 dereferenceable(64) %0, ptr noundef %1) unnamed_addr #4 align 2 {
  %3 = alloca ptr, align 8
  %4 = alloca ptr, align 8
  store ptr %0, ptr %3, align 8
  store ptr %1, ptr %4, align 8
  %5 = load ptr, ptr %3, align 8
  %6 = getelementptr inbounds %"struct.faiss::(anonymous namespace)::ExtraDistanceComputer.12", ptr %5, i32 0, i32 1
  %7 = getelementptr inbounds %"struct.faiss::(anonymous namespace)::ExtraDistanceComputer.12", ptr %5, i32 0, i32 3
  %8 = load ptr, ptr %7, align 8
  %9 = load ptr, ptr %4, align 8
  %10 = call noundef float @_ZNK5faiss14VectorDistanceILNS_10MetricTypeE22EEclEPKfS4_(ptr noundef nonnull align 8 dereferenceable(16) %6, ptr noundef %8, ptr noundef %9)
  ret float %10
}