; Function Attrs: mustprogress nofree nounwind memory(readwrite, inaccessiblemem: write) uwtable
define internal noundef float @_ZN5faiss12_GLOBAL__N_121ExtraDistanceComputerINS_14VectorDistanceILNS_10MetricTypeE22EEEE16distance_to_codeEPKh(ptr nocapture noundef nonnull readonly align 8 dereferenceable(64) %0, ptr nocapture noundef readonly %1) unnamed_addr #18 align 2 {
  %3 = getelementptr inbounds i8, ptr %0, i64 24
  %4 = getelementptr inbounds i8, ptr %0, i64 48
  %5 = load ptr, ptr %4, align 8
  %6 = load i64, ptr %3, align 8
  %.not.i = icmp eq i64 %6, 0
  br i1 %.not.i, label %_ZNK5faiss14VectorDistanceILNS_10MetricTypeE22EEclEPKfS4_.exit, label %.lr.ph.i

.lr.ph.i:                                         ; preds = %2, %.lr.ph.i
  %.020.i = phi float [ %29, %.lr.ph.i ], [ 0.000000e+00, %2 ]
  %.01819.i = phi i64 [ %30, %.lr.ph.i ], [ 0, %2 ]
  %7 = getelementptr inbounds float, ptr %5, i64 %.01819.i
  %8 = load float, ptr %7, align 4
  %9 = getelementptr inbounds float, ptr %1, i64 %.01819.i
  %10 = load float, ptr %9, align 4
  %11 = fadd float %8, %10
  %12 = fmul float %11, 5.000000e-01
  %13 = fdiv float %12, %8
  %14 = fpext float %13 to double
  %15 = tail call double @log(double noundef %14) #5
  %16 = fdiv float %12, %10
  %17 = fpext float %16 to double
  %18 = tail call double @log(double noundef %17) #5
  %19 = insertelement <2 x float> poison, float %8, i64 0
  %20 = insertelement <2 x float> %19, float %10, i64 1
  %21 = fneg <2 x float> %20
  %22 = fpext <2 x float> %21 to <2 x double>
  %23 = insertelement <2 x double> poison, double %15, i64 0
  %24 = insertelement <2 x double> %23, double %18, i64 1
  %25 = fmul <2 x double> %24, %22
  %26 = fptrunc <2 x double> %25 to <2 x float>
  %shift = shufflevector <2 x float> %26, <2 x float> poison, <2 x i32> <i32 1, i32 poison>
  %27 = fadd <2 x float> %shift, %26
  %28 = extractelement <2 x float> %27, i64 0
  %29 = fadd float %.020.i, %28
  %30 = add nuw i64 %.01819.i, 1
  %31 = load i64, ptr %3, align 8
  %32 = icmp ult i64 %30, %31
  br i1 %32, label %.lr.ph.i, label %._crit_edge.loopexit.i, !llvm.loop !29

._crit_edge.loopexit.i:                           ; preds = %.lr.ph.i
  %33 = fmul float %29, 5.000000e-01
  br label %_ZNK5faiss14VectorDistanceILNS_10MetricTypeE22EEclEPKfS4_.exit

_ZNK5faiss14VectorDistanceILNS_10MetricTypeE22EEclEPKfS4_.exit: ; preds = %2, %._crit_edge.loopexit.i
  %.0.lcssa.i = phi float [ 0.000000e+00, %2 ], [ %33, %._crit_edge.loopexit.i ]
  ret float %.0.lcssa.i
}